target datalayout = "e-m:e-p270:32:32-p271:32:32-p272:64:64-i64:64-i128:128-f80:128-n8:16:32:64-S128"
target triple = "x86_64-pc-linux-gnu"

%struct.lxb_encoding_encode_t = type { ptr, ptr, i64, i64, ptr, i64, i32 }

; Function Attrs: nounwind uwtable
define hidden i32 @lxb_encoding_encode_utf_8(ptr noundef %0, ptr noundef %1, ptr noundef %2) #0 {
  %4 = alloca i32, align 4
  %5 = alloca ptr, align 8
  %6 = alloca ptr, align 8
  %7 = alloca ptr, align 8
  %8 = alloca i32, align 4
  %9 = alloca ptr, align 8
  store ptr %0, ptr %5, align 8
  store ptr %1, ptr %6, align 8
  store ptr %2, ptr %7, align 8
  %10 = load ptr, ptr %6, align 8
  %11 = load ptr, ptr %10, align 8
  store ptr %11, ptr %9, align 8
  br label %12

12:                                               ; preds = %251, %3
  %13 = load ptr, ptr %9, align 8
  %14 = load ptr, ptr %7, align 8
  %15 = icmp ult ptr %13, %14
  br i1 %15, label %16, label %254

16:                                               ; preds = %12
  %17 = load ptr, ptr %9, align 8
  %18 = load i32, ptr %17, align 4
  store i32 %18, ptr %8, align 4
  %19 = load i32, ptr %8, align 4
  %20 = icmp ult i32 %19, 128
  br i1 %20, label %21, label %44

21:                                               ; preds = %16
  %22 = load ptr, ptr %5, align 8
  %23 = getelementptr inbounds %struct.lxb_encoding_encode_t, ptr %22, i32 0, i32 3
  %24 = load i64, ptr %23, align 8
  %25 = add i64 %24, 1
  %26 = load ptr, ptr %5, align 8
  %27 = getelementptr inbounds %struct.lxb_encoding_encode_t, ptr %26, i32 0, i32 2
  %28 = load i64, ptr %27, align 8
  %29 = icmp ugt i64 %25, %28
  br i1 %29, label %30, label %33

30:                                               ; preds = %21
  %31 = load ptr, ptr %9, align 8
  %32 = load ptr, ptr %6, align 8
  store ptr %31, ptr %32, align 8
  store i32 15, ptr %4, align 4
  br label %257

33:                                               ; preds = %21
  %34 = load i32, ptr %8, align 4
  %35 = trunc i32 %34 to i8
  %36 = load ptr, ptr %5, align 8
  %37 = getelementptr inbounds %struct.lxb_encoding_encode_t, ptr %36, i32 0, i32 1
  %38 = load ptr, ptr %37, align 8
  %39 = load ptr, ptr %5, align 8
  %40 = getelementptr inbounds %struct.lxb_encoding_encode_t, ptr %39, i32 0, i32 3
  %41 = load i64, ptr %40, align 8
  %42 = add i64 %41, 1
  store i64 %42, ptr %40, align 8
  %43 = getelementptr inbounds i8, ptr %38, i64 %41
  store i8 %35, ptr %43, align 1
  br label %250

44:                                               ; preds = %16
  %45 = load i32, ptr %8, align 4
  %46 = icmp ult i32 %45, 2048
  br i1 %46, label %47, label %84

47:                                               ; preds = %44
  %48 = load ptr, ptr %5, align 8
  %49 = getelementptr inbounds %struct.lxb_encoding_encode_t, ptr %48, i32 0, i32 3
  %50 = load i64, ptr %49, align 8
  %51 = add i64 %50, 2
  %52 = load ptr, ptr %5, align 8
  %53 = getelementptr inbounds %struct.lxb_encoding_encode_t, ptr %52, i32 0, i32 2
  %54 = load i64, ptr %53, align 8
  %55 = icmp ugt i64 %51, %54
  br i1 %55, label %56, label %59

56:                                               ; preds = %47
  %57 = load ptr, ptr %9, align 8
  %58 = load ptr, ptr %6, align 8
  store ptr %57, ptr %58, align 8
  store i32 15, ptr %4, align 4
  br label %257

59:                                               ; preds = %47
  %60 = load i32, ptr %8, align 4
  %61 = lshr i32 %60, 6
  %62 = or i32 192, %61
  %63 = trunc i32 %62 to i8
  %64 = load ptr, ptr %5, align 8
  %65 = getelementptr inbounds %struct.lxb_encoding_encode_t, ptr %64, i32 0, i32 1
  %66 = load ptr, ptr %65, align 8
  %67 = load ptr, ptr %5, align 8
  %68 = getelementptr inbounds %struct.lxb_encoding_encode_t, ptr %67, i32 0, i32 3
  %69 = load i64, ptr %68, align 8
  %70 = add i64 %69, 1
  store i64 %70, ptr %68, align 8
  %71 = getelementptr inbounds i8, ptr %66, i64 %69
  store i8 %63, ptr %71, align 1
  %72 = load i32, ptr %8, align 4
  %73 = and i32 %72, 63
  %74 = or i32 128, %73
  %75 = trunc i32 %74 to i8
  %76 = load ptr, ptr %5, align 8
  %77 = getelementptr inbounds %struct.lxb_encoding_encode_t, ptr %76, i32 0, i32 1
  %78 = load ptr, ptr %77, align 8
  %79 = load ptr, ptr %5, align 8
  %80 = getelementptr inbounds %struct.lxb_encoding_encode_t, ptr %79, i32 0, i32 3
  %81 = load i64, ptr %80, align 8
  %82 = add i64 %81, 1
  store i64 %82, ptr %80, align 8
  %83 = getelementptr inbounds i8, ptr %78, i64 %81
  store i8 %75, ptr %83, align 1
  br label %249

84:                                               ; preds = %44
  %85 = load i32, ptr %8, align 4
  %86 = icmp ult i32 %85, 65536
  br i1 %86, label %87, label %137

87:                                               ; preds = %84
  %88 = load ptr, ptr %5, align 8
  %89 = getelementptr inbounds %struct.lxb_encoding_encode_t, ptr %88, i32 0, i32 3
  %90 = load i64, ptr %89, align 8
  %91 = add i64 %90, 3
  %92 = load ptr, ptr %5, align 8
  %93 = getelementptr inbounds %struct.lxb_encoding_encode_t, ptr %92, i32 0, i32 2
  %94 = load i64, ptr %93, align 8
  %95 = icmp ugt i64 %91, %94
  br i1 %95, label %96, label %99

96:                                               ; preds = %87
  %97 = load ptr, ptr %9, align 8
  %98 = load ptr, ptr %6, align 8
  store ptr %97, ptr %98, align 8
  store i32 15, ptr %4, align 4
  br label %257

99:                                               ; preds = %87
  %100 = load i32, ptr %8, align 4
  %101 = lshr i32 %100, 12
  %102 = or i32 224, %101
  %103 = trunc i32 %102 to i8
  %104 = load ptr, ptr %5, align 8
  %105 = getelementptr inbounds %struct.lxb_encoding_encode_t, ptr %104, i32 0, i32 1
  %106 = load ptr, ptr %105, align 8
  %107 = load ptr, ptr %5, align 8
  %108 = getelementptr inbounds %struct.lxb_encoding_encode_t, ptr %107, i32 0, i32 3
  %109 = load i64, ptr %108, align 8
  %110 = add i64 %109, 1
  store i64 %110, ptr %108, align 8
  %111 = getelementptr inbounds i8, ptr %106, i64 %109
  store i8 %103, ptr %111, align 1
  %112 = load i32, ptr %8, align 4
  %113 = lshr i32 %112, 6
  %114 = and i32 %113, 63
  %115 = or i32 128, %114
  %116 = trunc i32 %115 to i8
  %117 = load ptr, ptr %5, align 8
  %118 = getelementptr inbounds %struct.lxb_encoding_encode_t, ptr %117, i32 0, i32 1
  %119 = load ptr, ptr %118, align 8
  %120 = load ptr, ptr %5, align 8
  %121 = getelementptr inbounds %struct.lxb_encoding_encode_t, ptr %120, i32 0, i32 3
  %122 = load i64, ptr %121, align 8
  %123 = add i64 %122, 1
  store i64 %123, ptr %121, align 8
  %124 = getelementptr inbounds i8, ptr %119, i64 %122
  store i8 %116, ptr %124, align 1
  %125 = load i32, ptr %8, align 4
  %126 = and i32 %125, 63
  %127 = or i32 128, %126
  %128 = trunc i32 %127 to i8
  %129 = load ptr, ptr %5, align 8
  %130 = getelementptr inbounds %struct.lxb_encoding_encode_t, ptr %129, i32 0, i32 1
  %131 = load ptr, ptr %130, align 8
  %132 = load ptr, ptr %5, align 8
  %133 = getelementptr inbounds %struct.lxb_encoding_encode_t, ptr %132, i32 0, i32 3
  %134 = load i64, ptr %133, align 8
  %135 = add i64 %134, 1
  store i64 %135, ptr %133, align 8
  %136 = getelementptr inbounds i8, ptr %131, i64 %134
  store i8 %128, ptr %136, align 1
  br label %248

137:                                              ; preds = %84
  %138 = load i32, ptr %8, align 4
  %139 = icmp ult i32 %138, 1114112
  br i1 %139, label %140, label %203

140:                                              ; preds = %137
  %141 = load ptr, ptr %5, align 8
  %142 = getelementptr inbounds %struct.lxb_encoding_encode_t, ptr %141, i32 0, i32 3
  %143 = load i64, ptr %142, align 8
  %144 = add i64 %143, 4
  %145 = load ptr, ptr %5, align 8
  %146 = getelementptr inbounds %struct.lxb_encoding_encode_t, ptr %145, i32 0, i32 2
  %147 = load i64, ptr %146, align 8
  %148 = icmp ugt i64 %144, %147
  br i1 %148, label %149, label %152

149:                                              ; preds = %140
  %150 = load ptr, ptr %9, align 8
  %151 = load ptr, ptr %6, align 8
  store ptr %150, ptr %151, align 8
  store i32 15, ptr %4, align 4
  br label %257

152:                                              ; preds = %140
  %153 = load i32, ptr %8, align 4
  %154 = lshr i32 %153, 18
  %155 = or i32 240, %154
  %156 = trunc i32 %155 to i8
  %157 = load ptr, ptr %5, align 8
  %158 = getelementptr inbounds %struct.lxb_encoding_encode_t, ptr %157, i32 0, i32 1
  %159 = load ptr, ptr %158, align 8
  %160 = load ptr, ptr %5, align 8
  %161 = getelementptr inbounds %struct.lxb_encoding_encode_t, ptr %160, i32 0, i32 3
  %162 = load i64, ptr %161, align 8
  %163 = add i64 %162, 1
  store i64 %163, ptr %161, align 8
  %164 = getelementptr inbounds i8, ptr %159, i64 %162
  store i8 %156, ptr %164, align 1
  %165 = load i32, ptr %8, align 4
  %166 = lshr i32 %165, 12
  %167 = and i32 %166, 63
  %168 = or i32 128, %167
  %169 = trunc i32 %168 to i8
  %170 = load ptr, ptr %5, align 8
  %171 = getelementptr inbounds %struct.lxb_encoding_encode_t, ptr %170, i32 0, i32 1
  %172 = load ptr, ptr %171, align 8
  %173 = load ptr, ptr %5, align 8
  %174 = getelementptr inbounds %struct.lxb_encoding_encode_t, ptr %173, i32 0, i32 3
  %175 = load i64, ptr %174, align 8
  %176 = add i64 %175, 1
  store i64 %176, ptr %174, align 8
  %177 = getelementptr inbounds i8, ptr %172, i64 %175
  store i8 %169, ptr %177, align 1
  %178 = load i32, ptr %8, align 4
  %179 = lshr i32 %178, 6
  %180 = and i32 %179, 63
  %181 = or i32 128, %180
  %182 = trunc i32 %181 to i8
  %183 = load ptr, ptr %5, align 8
  %184 = getelementptr inbounds %struct.lxb_encoding_encode_t, ptr %183, i32 0, i32 1
  %185 = load ptr, ptr %184, align 8
  %186 = load ptr, ptr %5, align 8
  %187 = getelementptr inbounds %struct.lxb_encoding_encode_t, ptr %186, i32 0, i32 3
  %188 = load i64, ptr %187, align 8
  %189 = add i64 %188, 1
  store i64 %189, ptr %187, align 8
  %190 = getelementptr inbounds i8, ptr %185, i64 %188
  store i8 %182, ptr %190, align 1
  %191 = load i32, ptr %8, align 4
  %192 = and i32 %191, 63
  %193 = or i32 128, %192
  %194 = trunc i32 %193 to i8
  %195 = load ptr, ptr %5, align 8
  %196 = getelementptr inbounds %struct.lxb_encoding_encode_t, ptr %195, i32 0, i32 1
  %197 = load ptr, ptr %196, align 8
  %198 = load ptr, ptr %5, align 8
  %199 = getelementptr inbounds %struct.lxb_encoding_encode_t, ptr %198, i32 0, i32 3
  %200 = load i64, ptr %199, align 8
  %201 = add i64 %200, 1
  store i64 %201, ptr %199, align 8
  %202 = getelementptr inbounds i8, ptr %197, i64 %200
  store i8 %194, ptr %202, align 1
  br label %247

203:                                              ; preds = %137
  %204 = load ptr, ptr %9, align 8
  %205 = load ptr, ptr %6, align 8
  store ptr %204, ptr %205, align 8
  br label %206

206:                                              ; preds = %203
  %207 = load ptr, ptr %5, align 8
  %208 = getelementptr inbounds %struct.lxb_encoding_encode_t, ptr %207, i32 0, i32 4
  %209 = load ptr, ptr %208, align 8
  %210 = icmp eq ptr %209, null
  br i1 %210, label %211, label %212

211:                                              ; preds = %206
  store i32 1, ptr %4, align 4
  br label %257

212:                                              ; preds = %206
  %213 = load ptr, ptr %5, align 8
  %214 = getelementptr inbounds %struct.lxb_encoding_encode_t, ptr %213, i32 0, i32 3
  %215 = load i64, ptr %214, align 8
  %216 = load ptr, ptr %5, align 8
  %217 = getelementptr inbounds %struct.lxb_encoding_encode_t, ptr %216, i32 0, i32 5
  %218 = load i64, ptr %217, align 8
  %219 = add i64 %215, %218
  %220 = load ptr, ptr %5, align 8
  %221 = getelementptr inbounds %struct.lxb_encoding_encode_t, ptr %220, i32 0, i32 2
  %222 = load i64, ptr %221, align 8
  %223 = icmp ugt i64 %219, %222
  br i1 %223, label %224, label %225

224:                                              ; preds = %212
  store i32 15, ptr %4, align 4
  br label %257

225:                                              ; preds = %212
  %226 = load ptr, ptr %5, align 8
  %227 = getelementptr inbounds %struct.lxb_encoding_encode_t, ptr %226, i32 0, i32 1
  %228 = load ptr, ptr %227, align 8
  %229 = load ptr, ptr %5, align 8
  %230 = getelementptr inbounds %struct.lxb_encoding_encode_t, ptr %229, i32 0, i32 3
  %231 = load i64, ptr %230, align 8
  %232 = getelementptr inbounds i8, ptr %228, i64 %231
  %233 = load ptr, ptr %5, align 8
  %234 = getelementptr inbounds %struct.lxb_encoding_encode_t, ptr %233, i32 0, i32 4
  %235 = load ptr, ptr %234, align 8
  %236 = load ptr, ptr %5, align 8
  %237 = getelementptr inbounds %struct.lxb_encoding_encode_t, ptr %236, i32 0, i32 5
  %238 = load i64, ptr %237, align 8
  call void @llvm.memcpy.p0.p0.i64(ptr align 1 %232, ptr align 1 %235, i64 %238, i1 false)
  %239 = load ptr, ptr %5, align 8
  %240 = getelementptr inbounds %struct.lxb_encoding_encode_t, ptr %239, i32 0, i32 5
  %241 = load i64, ptr %240, align 8
  %242 = load ptr, ptr %5, align 8
  %243 = getelementptr inbounds %struct.lxb_encoding_encode_t, ptr %242, i32 0, i32 3
  %244 = load i64, ptr %243, align 8
  %245 = add i64 %244, %241
  store i64 %245, ptr %243, align 8
  br label %246

246:                                              ; preds = %225
  br label %247

247:                                              ; preds = %246, %152
  br label %248

248:                                              ; preds = %247, %99
  br label %249

249:                                              ; preds = %248, %59
  br label %250

250:                                              ; preds = %249, %33
  br label %251

251:                                              ; preds = %250
  %252 = load ptr, ptr %9, align 8
  %253 = getelementptr inbounds i32, ptr %252, i32 1
  store ptr %253, ptr %9, align 8
  br label %12

254:                                              ; preds = %12
  %255 = load ptr, ptr %9, align 8
  %256 = load ptr, ptr %6, align 8
  store ptr %255, ptr %256, align 8
  store i32 0, ptr %4, align 4
  br label %257

257:                                              ; preds = %254, %224, %211, %149, %96, %56, %30
  %258 = load i32, ptr %4, align 4
  ret i32 %258
}