; Function Attrs: nofree norecurse nosync nounwind memory(readwrite, inaccessiblemem: none) uwtable
define hidden noundef i32 @lxb_encoding_encode_utf_8(ptr nocapture noundef %0, ptr nocapture noundef %1, ptr noundef readnone %2) local_unnamed_addr #0 {
  %4 = load ptr, ptr %1, align 8
  %5 = icmp ult ptr %4, %2
  br i1 %5, label %.lr.ph, label %.loopexit.sink.split

.lr.ph:                                           ; preds = %3
  %6 = getelementptr inbounds i8, ptr %0, i64 32
  %7 = getelementptr inbounds i8, ptr %0, i64 24
  %8 = getelementptr inbounds i8, ptr %0, i64 40
  %9 = getelementptr inbounds i8, ptr %0, i64 16
  %10 = getelementptr inbounds i8, ptr %0, i64 8
  br label %11

11:                                               ; preds = %.lr.ph, %125
  %.078 = phi ptr [ %4, %.lr.ph ], [ %126, %125 ]
  %12 = load i32, ptr %.078, align 4
  %13 = icmp ult i32 %12, 128
  br i1 %13, label %14, label %23

14:                                               ; preds = %11
  %15 = load i64, ptr %7, align 8
  %16 = add i64 %15, 1
  %17 = load i64, ptr %9, align 8
  %18 = icmp ugt i64 %16, %17
  br i1 %18, label %.loopexit.sink.split, label %19

19:                                               ; preds = %14
  %20 = trunc i32 %12 to i8
  %21 = load ptr, ptr %10, align 8
  store i64 %16, ptr %7, align 8
  %22 = getelementptr inbounds i8, ptr %21, i64 %15
  store i8 %20, ptr %22, align 1
  br label %125

23:                                               ; preds = %11
  %24 = icmp ult i32 %12, 2048
  br i1 %24, label %25, label %44

25:                                               ; preds = %23
  %26 = load i64, ptr %7, align 8
  %27 = add i64 %26, 2
  %28 = load i64, ptr %9, align 8
  %29 = icmp ugt i64 %27, %28
  br i1 %29, label %.loopexit.sink.split, label %30

30:                                               ; preds = %25
  %31 = lshr i32 %12, 6
  %32 = trunc i32 %31 to i8
  %33 = or disjoint i8 %32, -64
  %34 = load ptr, ptr %10, align 8
  %35 = add i64 %26, 1
  store i64 %35, ptr %7, align 8
  %36 = getelementptr inbounds i8, ptr %34, i64 %26
  store i8 %33, ptr %36, align 1
  %37 = trunc i32 %12 to i8
  %38 = and i8 %37, 63
  %39 = or disjoint i8 %38, -128
  %40 = load ptr, ptr %10, align 8
  %41 = load i64, ptr %7, align 8
  %42 = add i64 %41, 1
  store i64 %42, ptr %7, align 8
  %43 = getelementptr inbounds i8, ptr %40, i64 %41
  store i8 %39, ptr %43, align 1
  br label %125

44:                                               ; preds = %23
  %45 = icmp ult i32 %12, 65536
  br i1 %45, label %46, label %73

46:                                               ; preds = %44
  %47 = load i64, ptr %7, align 8
  %48 = add i64 %47, 3
  %49 = load i64, ptr %9, align 8
  %50 = icmp ugt i64 %48, %49
  br i1 %50, label %.loopexit.sink.split, label %51

51:                                               ; preds = %46
  %52 = lshr i32 %12, 12
  %53 = trunc i32 %52 to i8
  %54 = or disjoint i8 %53, -32
  %55 = load ptr, ptr %10, align 8
  %56 = add i64 %47, 1
  store i64 %56, ptr %7, align 8
  %57 = getelementptr inbounds i8, ptr %55, i64 %47
  store i8 %54, ptr %57, align 1
  %58 = lshr i32 %12, 6
  %59 = trunc i32 %58 to i8
  %60 = and i8 %59, 63
  %61 = or disjoint i8 %60, -128
  %62 = load ptr, ptr %10, align 8
  %63 = load i64, ptr %7, align 8
  %64 = add i64 %63, 1
  store i64 %64, ptr %7, align 8
  %65 = getelementptr inbounds i8, ptr %62, i64 %63
  store i8 %61, ptr %65, align 1
  %66 = trunc i32 %12 to i8
  %67 = and i8 %66, 63
  %68 = or disjoint i8 %67, -128
  %69 = load ptr, ptr %10, align 8
  %70 = load i64, ptr %7, align 8
  %71 = add i64 %70, 1
  store i64 %71, ptr %7, align 8
  %72 = getelementptr inbounds i8, ptr %69, i64 %70
  store i8 %68, ptr %72, align 1
  br label %125

73:                                               ; preds = %44
  %74 = icmp ult i32 %12, 1114112
  br i1 %74, label %75, label %110

75:                                               ; preds = %73
  %76 = load i64, ptr %7, align 8
  %77 = add i64 %76, 4
  %78 = load i64, ptr %9, align 8
  %79 = icmp ugt i64 %77, %78
  br i1 %79, label %.loopexit.sink.split, label %80

80:                                               ; preds = %75
  %81 = lshr i32 %12, 18
  %82 = trunc i32 %81 to i8
  %83 = or disjoint i8 %82, -16
  %84 = load ptr, ptr %10, align 8
  %85 = add i64 %76, 1
  store i64 %85, ptr %7, align 8
  %86 = getelementptr inbounds i8, ptr %84, i64 %76
  store i8 %83, ptr %86, align 1
  %87 = lshr i32 %12, 12
  %88 = trunc i32 %87 to i8
  %89 = and i8 %88, 63
  %90 = or disjoint i8 %89, -128
  %91 = load ptr, ptr %10, align 8
  %92 = load i64, ptr %7, align 8
  %93 = add i64 %92, 1
  store i64 %93, ptr %7, align 8
  %94 = getelementptr inbounds i8, ptr %91, i64 %92
  store i8 %90, ptr %94, align 1
  %95 = lshr i32 %12, 6
  %96 = trunc i32 %95 to i8
  %97 = and i8 %96, 63
  %98 = or disjoint i8 %97, -128
  %99 = load ptr, ptr %10, align 8
  %100 = load i64, ptr %7, align 8
  %101 = add i64 %100, 1
  store i64 %101, ptr %7, align 8
  %102 = getelementptr inbounds i8, ptr %99, i64 %100
  store i8 %98, ptr %102, align 1
  %103 = trunc i32 %12 to i8
  %104 = and i8 %103, 63
  %105 = or disjoint i8 %104, -128
  %106 = load ptr, ptr %10, align 8
  %107 = load i64, ptr %7, align 8
  %108 = add i64 %107, 1
  store i64 %108, ptr %7, align 8
  %109 = getelementptr inbounds i8, ptr %106, i64 %107
  store i8 %105, ptr %109, align 1
  br label %125

110:                                              ; preds = %73
  store ptr %.078, ptr %1, align 8
  %111 = load ptr, ptr %6, align 8
  %112 = icmp eq ptr %111, null
  br i1 %112, label %.loopexit, label %113

113:                                              ; preds = %110
  %114 = load i64, ptr %7, align 8
  %115 = load i64, ptr %8, align 8
  %116 = add i64 %115, %114
  %117 = load i64, ptr %9, align 8
  %118 = icmp ugt i64 %116, %117
  br i1 %118, label %.loopexit, label %119

119:                                              ; preds = %113
  %120 = load ptr, ptr %10, align 8
  %121 = getelementptr inbounds i8, ptr %120, i64 %114
  tail call void @llvm.memcpy.p0.p0.i64(ptr align 1 %121, ptr nonnull align 1 %111, i64 %115, i1 false)
  %122 = load i64, ptr %8, align 8
  %123 = load i64, ptr %7, align 8
  %124 = add i64 %123, %122
  store i64 %124, ptr %7, align 8
  br label %125

125:                                              ; preds = %19, %51, %119, %80, %30
  %126 = getelementptr inbounds i8, ptr %.078, i64 4
  %127 = icmp ult ptr %126, %2
  br i1 %127, label %11, label %.loopexit.sink.split

.loopexit.sink.split:                             ; preds = %125, %75, %46, %25, %14, %3
  %.0.lcssa.sink = phi ptr [ %4, %3 ], [ %.078, %14 ], [ %.078, %25 ], [ %.078, %46 ], [ %.078, %75 ], [ %126, %125 ]
  %.069.ph = phi i32 [ 0, %3 ], [ 15, %14 ], [ 15, %25 ], [ 15, %46 ], [ 15, %75 ], [ 0, %125 ]
  store ptr %.0.lcssa.sink, ptr %1, align 8
  br label %.loopexit

.loopexit:                                        ; preds = %113, %110, %.loopexit.sink.split
  %.069 = phi i32 [ %.069.ph, %.loopexit.sink.split ], [ 15, %113 ], [ 1, %110 ]
  ret i32 %.069
}